SF:/home/canizafa/Documentos/proyectos-propios/educhain/educhain_contract/lib.rs
FN:252,_RNvNtNtCs36oyEcKXR3t_17educhain_contract17educhain_contract5tests10create_app
FN:221,_RNCNvMNvNtCs36oyEcKXR3t_17educhain_contract17educhain_contracts3_1__NtB6_8Educhain21__revoke_certification0B8_
FN:108,_RNvMNvNtCs36oyEcKXR3t_17educhain_contract17educhain_contracts3_1__NtB4_8Educhain12__revoke_role
FN:128,_RNvMNvNtCs36oyEcKXR3t_17educhain_contract17educhain_contracts3_1__NtB4_8Educhain15__transfer_owner
FN:162,_RNvMNvNtCs36oyEcKXR3t_17educhain_contract17educhain_contracts3_1__NtB4_8Educhain19__emit_certification
FN:217,_RNvMNvNtCs36oyEcKXR3t_17educhain_contract17educhain_contracts3_1__NtB4_8Educhain21__revoke_certification
FN:241,_RNvMNvNtCs36oyEcKXR3t_17educhain_contract17educhain_contracts3_1__NtB4_8Educhain28__get_certificates_of_student
FN:89,_RNvMNvNtCs36oyEcKXR3t_17educhain_contract17educhain_contracts3_1__NtB4_8Educhain11__grant_role
FN:70,_RNvMNvNtCs36oyEcKXR3t_17educhain_contract17educhain_contracts3_1__NtB4_8Educhain14owner_or_admin
FN:64,_RNvMNvNtCs36oyEcKXR3t_17educhain_contract17educhain_contracts3_1__NtB4_8Educhain15invalid_address
FNDA:3,_RNvNtNtCs36oyEcKXR3t_17educhain_contract17educhain_contract5tests10create_app
FNDA:0,_RNCNvMNvNtCs36oyEcKXR3t_17educhain_contract17educhain_contracts3_1__NtB6_8Educhain21__revoke_certification0B8_
FNDA:0,_RNvMNvNtCs36oyEcKXR3t_17educhain_contract17educhain_contracts3_1__NtB4_8Educhain12__revoke_role
FNDA:0,_RNvMNvNtCs36oyEcKXR3t_17educhain_contract17educhain_contracts3_1__NtB4_8Educhain15__transfer_owner
FNDA:0,_RNvMNvNtCs36oyEcKXR3t_17educhain_contract17educhain_contracts3_1__NtB4_8Educhain19__emit_certification
FNDA:0,_RNvMNvNtCs36oyEcKXR3t_17educhain_contract17educhain_contracts3_1__NtB4_8Educhain21__revoke_certification
FNDA:0,_RNvMNvNtCs36oyEcKXR3t_17educhain_contract17educhain_contracts3_1__NtB4_8Educhain28__get_certificates_of_student
FNDA:1,_RNvMNvNtCs36oyEcKXR3t_17educhain_contract17educhain_contracts3_1__NtB4_8Educhain11__grant_role
FNDA:2,_RNvMNvNtCs36oyEcKXR3t_17educhain_contract17educhain_contracts3_1__NtB4_8Educhain14owner_or_admin
FNDA:2,_RNvMNvNtCs36oyEcKXR3t_17educhain_contract17educhain_contracts3_1__NtB4_8Educhain15invalid_address
FNF:10
FNH:4
DA:64,2
DA:65,2
DA:66,1
DA:67,1
DA:68,1
DA:69,2
DA:70,2
DA:71,2
DA:72,1
DA:73,1
DA:74,0
DA:75,0
DA:76,1
DA:77,1
DA:78,2
DA:89,1
DA:90,1
DA:91,0
DA:92,0
DA:93,0
DA:94,1
DA:95,1
DA:96,1
DA:97,1
DA:108,0
DA:109,0
DA:110,0
DA:111,0
DA:112,0
DA:113,0
DA:114,0
DA:115,0
DA:116,0
DA:117,0
DA:128,0
DA:129,0
DA:130,0
DA:131,0
DA:132,0
DA:133,0
DA:134,0
DA:162,0
DA:163,0
DA:164,0
DA:165,0
DA:166,0
DA:167,0
DA:168,0
DA:169,0
DA:170,0
DA:171,0
DA:172,0
DA:173,0
DA:174,0
DA:175,0
DA:176,0
DA:177,0
DA:178,0
DA:179,0
DA:180,0
DA:181,0
DA:182,0
DA:183,0
DA:184,0
DA:185,0
DA:217,0
DA:218,0
DA:219,0
DA:220,0
DA:221,0
DA:222,0
DA:223,0
DA:224,0
DA:225,0
DA:226,0
DA:227,0
DA:228,0
DA:229,0
DA:230,0
DA:231,0
DA:232,0
DA:241,0
DA:242,0
DA:243,0
DA:244,0
DA:246,0
DA:252,3
DA:253,3
DA:254,3
BRF:0
BRH:0
LF:90
LH:22
end_of_record